; Function Attrs: nounwind uwtable
define i32 @Abc_NtkFunctionalIsoGia_rec(ptr noundef %0, ptr noundef captures(none) %1) local_unnamed_addr #0 {
  %3 = tail call fastcc i32 @Abc_NodeIsTravIdCurrent(ptr noundef %1)
  %.not = icmp eq i32 %3, 0
  br i1 %.not, label %4, label %common.ret

4:                                                ; preds = %2
  %5 = getelementptr i8, ptr %1, i64 28
  %.val20 = load i32, ptr %5, align 4, !tbaa !33
  %6 = icmp eq i32 %.val20, 0
  br i1 %6, label %common.ret, label %7

7:                                                ; preds = %4
  %8 = getelementptr i8, ptr %1, i64 20
  %.val19 = load i32, ptr %8, align 4
  %9 = and i32 %.val19, 15
  switch i32 %9, label %12 [
    i32 5, label %common.ret
    i32 2, label %common.ret
  ]

common.ret:                                       ; preds = %7, %7, %4, %2
  %10 = getelementptr inbounds nuw i8, ptr %1, i64 64
  %11 = load i32, ptr %10, align 8, !tbaa !46
  br label %common.ret30

12:                                               ; preds = %7
  %.val = load ptr, ptr %1, align 8, !tbaa !3
  %13 = getelementptr i8, ptr %1, i64 16
  %.val18 = load i32, ptr %13, align 8, !tbaa !13
  %14 = getelementptr inbounds nuw i8, ptr %.val, i64 216
  %15 = load i32, ptr %14, align 8, !tbaa !14
  %16 = getelementptr inbounds nuw i8, ptr %.val, i64 224
  %17 = add nsw i32 %.val18, 1
  %18 = getelementptr inbounds nuw i8, ptr %.val, i64 228
  %19 = load i32, ptr %18, align 4, !tbaa !28
  %.not.i.not.i.i.i = icmp slt i32 %.val18, %19
  br i1 %.not.i.not.i.i.i, label %Abc_NodeSetTravIdCurrent.exit, label %20

20:                                               ; preds = %12
  %21 = load i32, ptr %16, align 8, !tbaa !29
  %22 = shl nsw i32 %21, 1
  %.not.i.i.i = icmp slt i32 %.val18, %22
  %.not.i.i.not.i.i.i = icmp sgt i32 %21, %.val18
  br i1 %.not.i.i.i, label %35, label %23

23:                                               ; preds = %20
  br i1 %.not.i.i.not.i.i.i, label %Vec_IntGrow.exit.i.i.i.i, label %24

24:                                               ; preds = %23
  %25 = getelementptr inbounds nuw i8, ptr %.val, i64 232
  %26 = load ptr, ptr %25, align 8, !tbaa !30
  %.not9.i.i.i.i.i = icmp eq ptr %26, null
  %27 = sext i32 %17 to i64
  %28 = shl nsw i64 %27, 2
  br i1 %.not9.i.i.i.i.i, label %31, label %29

29:                                               ; preds = %24
  %30 = tail call ptr @realloc(ptr noundef nonnull %26, i64 noundef %28) #21
  br label %33

31:                                               ; preds = %24
  %32 = tail call noalias ptr @malloc(i64 noundef %28) #22
  br label %33

33:                                               ; preds = %31, %29
  %34 = phi ptr [ %30, %29 ], [ %32, %31 ]
  store ptr %34, ptr %25, align 8, !tbaa !30
  br label %Vec_IntGrow.exit.sink.split.i.i.i.i

35:                                               ; preds = %20
  br i1 %.not.i.i.not.i.i.i, label %Vec_IntGrow.exit.i.i.i.i, label %36

36:                                               ; preds = %35
  %37 = getelementptr inbounds nuw i8, ptr %.val, i64 232
  %38 = load ptr, ptr %37, align 8, !tbaa !30
  %.not9.i21.i.i.i.i = icmp eq ptr %38, null
  %39 = sext i32 %22 to i64
  %40 = shl nsw i64 %39, 2
  br i1 %.not9.i21.i.i.i.i, label %43, label %41

41:                                               ; preds = %36
  %42 = tail call ptr @realloc(ptr noundef nonnull %38, i64 noundef %40) #21
  br label %45

43:                                               ; preds = %36
  %44 = tail call noalias ptr @malloc(i64 noundef %40) #22
  br label %45

45:                                               ; preds = %43, %41
  %46 = phi ptr [ %42, %41 ], [ %44, %43 ]
  store ptr %46, ptr %37, align 8, !tbaa !30
  br label %Vec_IntGrow.exit.sink.split.i.i.i.i

Vec_IntGrow.exit.sink.split.i.i.i.i:              ; preds = %45, %33
  %.sink.i.i.i.i = phi i32 [ %22, %45 ], [ %17, %33 ]
  store i32 %.sink.i.i.i.i, ptr %16, align 8, !tbaa !29
  %.pre.i.i.i = load i32, ptr %18, align 4, !tbaa !28
  br label %Vec_IntGrow.exit.i.i.i.i

Vec_IntGrow.exit.i.i.i.i:                         ; preds = %Vec_IntGrow.exit.sink.split.i.i.i.i, %35, %23
  %47 = phi i32 [ %.pre.i.i.i, %Vec_IntGrow.exit.sink.split.i.i.i.i ], [ %19, %35 ], [ %19, %23 ]
  %.not4.i.i.i = icmp sgt i32 %47, %.val18
  br i1 %.not4.i.i.i, label %._crit_edge.i.i.i.i, label %.lr.ph.i.i.i.i

.lr.ph.i.i.i.i:                                   ; preds = %Vec_IntGrow.exit.i.i.i.i
  %48 = getelementptr inbounds nuw i8, ptr %.val, i64 232
  %49 = load ptr, ptr %48, align 8, !tbaa !30
  %50 = sext i32 %47 to i64
  %51 = shl nsw i64 %50, 2
  %scevgep.i.i.i.i = getelementptr i8, ptr %49, i64 %51
  %52 = sub i32 %.val18, %47
  %53 = zext i32 %52 to i64
  %54 = shl nuw nsw i64 %53, 2
  %55 = add nuw nsw i64 %54, 4
  tail call void @llvm.memset.p0.i64(ptr noundef nonnull align 4 dereferenceable(1) %scevgep.i.i.i.i, i8 0, i64 %55, i1 false), !tbaa !31
  br label %._crit_edge.i.i.i.i

._crit_edge.i.i.i.i:                              ; preds = %.lr.ph.i.i.i.i, %Vec_IntGrow.exit.i.i.i.i
  store i32 %17, ptr %18, align 4, !tbaa !28
  %.val21.pre = load ptr, ptr %1, align 8, !tbaa !3
  br label %Abc_NodeSetTravIdCurrent.exit

common.ret30:                                     ; preds = %Abc_NodeSetTravIdCurrent.exit, %common.ret
  %common.ret30.op = phi i32 [ %11, %common.ret ], [ %79, %Abc_NodeSetTravIdCurrent.exit ]
  ret i32 %common.ret30.op

Abc_NodeSetTravIdCurrent.exit:                    ; preds = %12, %._crit_edge.i.i.i.i
  %.val21 = phi ptr [ %.val, %12 ], [ %.val21.pre, %._crit_edge.i.i.i.i ]
  %56 = getelementptr i8, ptr %.val, i64 232
  %.val.i.i.i = load ptr, ptr %56, align 8, !tbaa !30
  %57 = sext i32 %.val18 to i64
  %58 = getelementptr inbounds i32, ptr %.val.i.i.i, i64 %57
  store i32 %15, ptr %58, align 4, !tbaa !31
  %59 = getelementptr i8, ptr %1, i64 32
  %.val22 = load ptr, ptr %59, align 8, !tbaa !34
  %60 = getelementptr i8, ptr %.val21, i64 32
  %.val21.val = load ptr, ptr %60, align 8, !tbaa !35
  %.val22.val = load i32, ptr %.val22, align 4, !tbaa !31
  %61 = getelementptr i8, ptr %.val21.val, i64 8
  %.val21.val.val = load ptr, ptr %61, align 8, !tbaa !36
  %62 = sext i32 %.val22.val to i64
  %63 = getelementptr inbounds ptr, ptr %.val21.val.val, i64 %62
  %64 = load ptr, ptr %63, align 8, !tbaa !38
  %65 = tail call i32 @Abc_NtkFunctionalIsoGia_rec(ptr noundef %0, ptr noundef %64)
  %.val23 = load ptr, ptr %1, align 8, !tbaa !3
  %.val24 = load ptr, ptr %59, align 8, !tbaa !34
  %66 = getelementptr i8, ptr %.val23, i64 32
  %.val23.val = load ptr, ptr %66, align 8, !tbaa !35
  %67 = getelementptr i8, ptr %.val24, i64 4
  %.val24.val = load i32, ptr %67, align 4, !tbaa !31
  %68 = getelementptr i8, ptr %.val23.val, i64 8
  %.val23.val.val = load ptr, ptr %68, align 8, !tbaa !36
  %69 = sext i32 %.val24.val to i64
  %70 = getelementptr inbounds ptr, ptr %.val23.val.val, i64 %69
  %71 = load ptr, ptr %70, align 8, !tbaa !38
  %72 = tail call i32 @Abc_NtkFunctionalIsoGia_rec(ptr noundef %0, ptr noundef %71)
  %.val25 = load i32, ptr %8, align 4
  %73 = lshr i32 %.val25, 10
  %74 = and i32 %73, 1
  %75 = xor i32 %74, %65
  %76 = lshr i32 %.val25, 11
  %77 = and i32 %76, 1
  %78 = xor i32 %77, %72
  %79 = tail call i32 @Gia_ManHashAnd(ptr noundef %0, i32 noundef %75, i32 noundef %78) #23
  %80 = getelementptr inbounds nuw i8, ptr %1, i64 64
  store i32 %79, ptr %80, align 8, !tbaa !46
  br label %common.ret30
}